target datalayout = "e-m:e-p270:32:32-p271:32:32-p272:64:64-i64:64-i128:128-f80:128-n8:16:32:64-S128"
target triple = "x86_64-pc-linux-gnu"

@ett_bacp = internal global i32 0, align 4
@ett_bacp_options = internal global i32 0, align 4
@proto_bacp = internal global i32 0, align 4
@bacp_option_table = internal global ptr null, align 8

; Function Attrs: null_pointer_is_valid sspstrong uwtable
define internal i32 @dissect_bacp(ptr noundef %0, ptr noundef %1, ptr noundef %2, ptr noundef %3) #1 {
  %5 = alloca ptr, align 8
  %6 = alloca ptr, align 8
  %7 = alloca ptr, align 8
  %8 = alloca ptr, align 8
  store ptr %0, ptr %5, align 8
  store ptr %1, ptr %6, align 8
  store ptr %2, ptr %7, align 8
  store ptr %3, ptr %8, align 8
  %9 = load ptr, ptr %5, align 8
  %10 = load i32, ptr @proto_bacp, align 4
  %11 = load i32, ptr @ett_bacp, align 4
  %12 = load i32, ptr @ett_bacp_options, align 4
  %13 = load ptr, ptr @bacp_option_table, align 8
  %14 = load ptr, ptr %6, align 8
  %15 = load ptr, ptr %7, align 8
  call void @dissect_cp(ptr noundef %9, i32 noundef %10, i32 noundef %11, ptr noundef @cp_vals, i32 noundef %12, ptr noundef %13, ptr noundef %14, ptr noundef %15)
  %16 = load ptr, ptr %5, align 8
  %17 = call i32 @tvb_captured_length(ptr noundef %16)
  ret i32 %17
}